
Quick861DW_firmware.elf:     file format elf32-avr

Sections:
Idx Name          Size      VMA       LMA       File off  Algn
  0 .text         000003dc  00000000  00000000  00000074  2**1
                  CONTENTS, ALLOC, LOAD, READONLY, CODE
  1 .data         0000000c  00800060  000003dc  00000450  2**0
                  CONTENTS, ALLOC, LOAD, DATA
  2 .comment      00000030  00000000  00000000  0000045c  2**0
                  CONTENTS, READONLY
  3 .note.gnu.avr.deviceinfo 0000003c  00000000  00000000  0000048c  2**2
                  CONTENTS, READONLY
  4 .debug_aranges 000000f8  00000000  00000000  000004c8  2**0
                  CONTENTS, READONLY, DEBUGGING
  5 .debug_info   00000ff5  00000000  00000000  000005c0  2**0
                  CONTENTS, READONLY, DEBUGGING
  6 .debug_abbrev 00000949  00000000  00000000  000015b5  2**0
                  CONTENTS, READONLY, DEBUGGING
  7 .debug_line   000008f8  00000000  00000000  00001efe  2**0
                  CONTENTS, READONLY, DEBUGGING
  8 .debug_frame  000001e4  00000000  00000000  000027f8  2**2
                  CONTENTS, READONLY, DEBUGGING
  9 .debug_str    000004d8  00000000  00000000  000029dc  2**0
                  CONTENTS, READONLY, DEBUGGING
 10 .debug_loc    0000063d  00000000  00000000  00002eb4  2**0
                  CONTENTS, READONLY, DEBUGGING
 11 .debug_ranges 000000b8  00000000  00000000  000034f1  2**0
                  CONTENTS, READONLY, DEBUGGING

Disassembly of section .text:

00000000 <__vectors>:
   0:	0c 94 2a 00 	jmp	0x54	; 0x54 <__ctors_end>
   4:	0c 94 3f 00 	jmp	0x7e	; 0x7e <__bad_interrupt>
   8:	0c 94 3f 00 	jmp	0x7e	; 0x7e <__bad_interrupt>
   c:	0c 94 3f 00 	jmp	0x7e	; 0x7e <__bad_interrupt>
  10:	0c 94 3f 00 	jmp	0x7e	; 0x7e <__bad_interrupt>
  14:	0c 94 3f 00 	jmp	0x7e	; 0x7e <__bad_interrupt>
  18:	0c 94 3f 00 	jmp	0x7e	; 0x7e <__bad_interrupt>
  1c:	0c 94 3f 00 	jmp	0x7e	; 0x7e <__bad_interrupt>
  20:	0c 94 3f 00 	jmp	0x7e	; 0x7e <__bad_interrupt>
  24:	0c 94 3f 00 	jmp	0x7e	; 0x7e <__bad_interrupt>
  28:	0c 94 3f 00 	jmp	0x7e	; 0x7e <__bad_interrupt>
  2c:	0c 94 3f 00 	jmp	0x7e	; 0x7e <__bad_interrupt>
  30:	0c 94 3f 00 	jmp	0x7e	; 0x7e <__bad_interrupt>
  34:	0c 94 3f 00 	jmp	0x7e	; 0x7e <__bad_interrupt>
  38:	0c 94 3f 00 	jmp	0x7e	; 0x7e <__bad_interrupt>
  3c:	0c 94 3f 00 	jmp	0x7e	; 0x7e <__bad_interrupt>
  40:	0c 94 3f 00 	jmp	0x7e	; 0x7e <__bad_interrupt>
  44:	0c 94 3f 00 	jmp	0x7e	; 0x7e <__bad_interrupt>
  48:	0c 94 3f 00 	jmp	0x7e	; 0x7e <__bad_interrupt>
  4c:	0c 94 3f 00 	jmp	0x7e	; 0x7e <__bad_interrupt>
  50:	0c 94 3f 00 	jmp	0x7e	; 0x7e <__bad_interrupt>

00000054 <__ctors_end>:
  54:	11 24       	eor	r1, r1
  56:	1f be       	out	0x3f, r1	; 63
  58:	cf e5       	ldi	r28, 0x5F	; 95
  5a:	d4 e0       	ldi	r29, 0x04	; 4
  5c:	de bf       	out	0x3e, r29	; 62
  5e:	cd bf       	out	0x3d, r28	; 61

00000060 <__do_copy_data>:
  60:	10 e0       	ldi	r17, 0x00	; 0
  62:	a0 e6       	ldi	r26, 0x60	; 96
  64:	b0 e0       	ldi	r27, 0x00	; 0
  66:	ec ed       	ldi	r30, 0xDC	; 220
  68:	f3 e0       	ldi	r31, 0x03	; 3
  6a:	02 c0       	rjmp	.+4      	; 0x70 <__do_copy_data+0x10>
  6c:	05 90       	lpm	r0, Z+
  6e:	0d 92       	st	X+, r0
  70:	ac 36       	cpi	r26, 0x6C	; 108
  72:	b1 07       	cpc	r27, r17
  74:	d9 f7       	brne	.-10     	; 0x6c <__do_copy_data+0xc>
  76:	0e 94 79 01 	call	0x2f2	; 0x2f2 <main>
  7a:	0c 94 ec 01 	jmp	0x3d8	; 0x3d8 <_exit>

0000007e <__bad_interrupt>:
  7e:	0c 94 00 00 	jmp	0	; 0x0 <__vectors>

00000082 <ButtonsInit>:
	
	//Init buttons : set as input and enable pull up resistors to make debounce bit more easier.
	
	//Set internal pull up resistor for control keys 
	
	sbi(PORTC, BTN_AIR_UP);
  82:	ac 9a       	sbi	0x15, 4	; 21
	sbi(PORTC, BTN_AIR_DOWN);
  84:	ab 9a       	sbi	0x15, 3	; 21
	sbi(PORTC, BTN_TMP_UP);
  86:	ad 9a       	sbi	0x15, 5	; 21
	sbi(PORTC, BTN_TMP_DOWN);
  88:	ae 9a       	sbi	0x15, 6	; 21
	
	//Set internal pull up resistor for presets keys 
	sbi(PORTC, BTN_PST_3);
  8a:	aa 9a       	sbi	0x15, 2	; 21
	sbi(PORTC, BTN_PST_2);
  8c:	a9 9a       	sbi	0x15, 1	; 21
	sbi(PORTC, BTN_PST_1);
  8e:	a8 9a       	sbi	0x15, 0	; 21
  90:	08 95       	ret

00000092 <IsButtonPressed>:
}

int IsButtonPressed(uint8_t btn){
	if (bit_is_clear(BTN_PIN, btn)){
  92:	23 b3       	in	r18, 0x13	; 19
  94:	30 e0       	ldi	r19, 0x00	; 0
  96:	02 c0       	rjmp	.+4      	; 0x9c <IsButtonPressed+0xa>
  98:	35 95       	asr	r19
  9a:	27 95       	ror	r18
  9c:	8a 95       	dec	r24
  9e:	e2 f7       	brpl	.-8      	; 0x98 <IsButtonPressed+0x6>
  a0:	20 fd       	sbrc	r18, 0
  a2:	09 c0       	rjmp	.+18     	; 0xb6 <IsButtonPressed+0x24>
	#else
		//round up by default
		__ticks_dc = (uint32_t)(ceil(fabs(__tmp)));
	#endif

	__builtin_avr_delay_cycles(__ticks_dc);
  a4:	8b e4       	ldi	r24, 0x4B	; 75
  a6:	9d e1       	ldi	r25, 0x1D	; 29
  a8:	01 97       	sbiw	r24, 0x01	; 1
  aa:	f1 f7       	brne	.-4      	; 0xa8 <IsButtonPressed+0x16>
  ac:	00 c0       	rjmp	.+0      	; 0xae <IsButtonPressed+0x1c>
  ae:	00 00       	nop
		delay(BTN_DEBOUNCE);
		return 1;
  b0:	81 e0       	ldi	r24, 0x01	; 1
  b2:	90 e0       	ldi	r25, 0x00	; 0
  b4:	08 95       	ret
	}
	return 0;
  b6:	80 e0       	ldi	r24, 0x00	; 0
  b8:	90 e0       	ldi	r25, 0x00	; 0
}
  ba:	08 95       	ret

000000bc <BuzzerInit>:
#include "avr/io.h"
#include <util/delay.h>
#include "Buzzer.h"

void BuzzerInit(void){
	sbi(DDRA, BUZZ);
  bc:	d7 9a       	sbi	0x1a, 7	; 26
  be:	08 95       	ret

000000c0 <BuzzerBeep>:
}

void BuzzerBeep(int timeMs) {
	sbi(PORTA, BUZZ);
  c0:	df 9a       	sbi	0x1b, 7	; 27
		while(timeMs--) {
  c2:	00 97       	sbiw	r24, 0x00	; 0
  c4:	41 f0       	breq	.+16     	; 0xd6 <BuzzerBeep+0x16>
  c6:	e9 ef       	ldi	r30, 0xF9	; 249
  c8:	f0 e0       	ldi	r31, 0x00	; 0
  ca:	31 97       	sbiw	r30, 0x01	; 1
  cc:	f1 f7       	brne	.-4      	; 0xca <BuzzerBeep+0xa>
  ce:	00 c0       	rjmp	.+0      	; 0xd0 <BuzzerBeep+0x10>
  d0:	00 00       	nop
  d2:	01 97       	sbiw	r24, 0x01	; 1
  d4:	c1 f7       	brne	.-16     	; 0xc6 <BuzzerBeep+0x6>
			delay(1);
		}
	cbi(PORTA, BUZZ);
  d6:	df 98       	cbi	0x1b, 7	; 27
  d8:	08 95       	ret

000000da <LCDSendBit>:
	LCDSendCmd(LCD_ComMode);
	LCDSendCmd(LCD_LCD_on);
}
void LCDdisplayDigit(int digit, int address){
	if(!(digit > 9 || digit < 0) && !(address < 0 || address > 16)) {
		LCDWrite(address, numbers[digit]);
  da:	66 23       	and	r22, r22
  dc:	61 f0       	breq	.+24     	; 0xf6 <LCDSendBit+0x1c>
  de:	90 e0       	ldi	r25, 0x00	; 0
  e0:	c2 98       	cbi	0x18, 2	; 24
  e2:	88 23       	and	r24, r24
  e4:	14 f4       	brge	.+4      	; 0xea <LCDSendBit+0x10>
  e6:	c1 9a       	sbi	0x18, 1	; 24
  e8:	01 c0       	rjmp	.+2      	; 0xec <LCDSendBit+0x12>
  ea:	c1 98       	cbi	0x18, 1	; 24
  ec:	c2 9a       	sbi	0x18, 2	; 24
  ee:	88 0f       	add	r24, r24
  f0:	9f 5f       	subi	r25, 0xFF	; 255
  f2:	69 13       	cpse	r22, r25
  f4:	f5 cf       	rjmp	.-22     	; 0xe0 <LCDSendBit+0x6>
  f6:	08 95       	ret

000000f8 <LCDSendCmd>:
  f8:	cf 93       	push	r28
  fa:	c8 2f       	mov	r28, r24
  fc:	c3 98       	cbi	0x18, 3	; 24
  fe:	64 e0       	ldi	r22, 0x04	; 4
 100:	80 e8       	ldi	r24, 0x80	; 128
 102:	0e 94 6d 00 	call	0xda	; 0xda <LCDSendBit>
 106:	68 e0       	ldi	r22, 0x08	; 8
 108:	8c 2f       	mov	r24, r28
 10a:	0e 94 6d 00 	call	0xda	; 0xda <LCDSendBit>
 10e:	c3 9a       	sbi	0x18, 3	; 24
 110:	cf 91       	pop	r28
 112:	08 95       	ret

00000114 <LCDWrite>:
 114:	cf 93       	push	r28
 116:	df 93       	push	r29
 118:	d8 2f       	mov	r29, r24
 11a:	c6 2f       	mov	r28, r22
 11c:	c3 98       	cbi	0x18, 3	; 24
 11e:	63 e0       	ldi	r22, 0x03	; 3
 120:	80 ea       	ldi	r24, 0xA0	; 160
 122:	0e 94 6d 00 	call	0xda	; 0xda <LCDSendBit>
 126:	66 e0       	ldi	r22, 0x06	; 6
 128:	8d 2f       	mov	r24, r29
 12a:	88 0f       	add	r24, r24
 12c:	88 0f       	add	r24, r24
 12e:	0e 94 6d 00 	call	0xda	; 0xda <LCDSendBit>
 132:	68 e0       	ldi	r22, 0x08	; 8
 134:	8c 2f       	mov	r24, r28
 136:	0e 94 6d 00 	call	0xda	; 0xda <LCDSendBit>
 13a:	c3 9a       	sbi	0x18, 3	; 24
 13c:	df 91       	pop	r29
 13e:	cf 91       	pop	r28
 140:	08 95       	ret

00000142 <LCDAllSegementsOff>:
 142:	cf 93       	push	r28
 144:	df 93       	push	r29
 146:	88 23       	and	r24, r24
 148:	51 f0       	breq	.+20     	; 0x15e <LCDAllSegementsOff+0x1c>
 14a:	d8 2f       	mov	r29, r24
 14c:	c0 e0       	ldi	r28, 0x00	; 0
 14e:	60 e0       	ldi	r22, 0x00	; 0
 150:	8c 2f       	mov	r24, r28
 152:	88 0f       	add	r24, r24
 154:	0e 94 8a 00 	call	0x114	; 0x114 <LCDWrite>
 158:	cf 5f       	subi	r28, 0xFF	; 255
 15a:	dc 13       	cpse	r29, r28
 15c:	f8 cf       	rjmp	.-16     	; 0x14e <LCDAllSegementsOff+0xc>
 15e:	df 91       	pop	r29
 160:	cf 91       	pop	r28
 162:	08 95       	ret

00000164 <LCDSetPins>:
 164:	ba 9a       	sbi	0x17, 2	; 23
 166:	bb 9a       	sbi	0x17, 3	; 23
 168:	b9 9a       	sbi	0x17, 1	; 23
 16a:	08 95       	ret

0000016c <LCDInit>:
 16c:	82 e0       	ldi	r24, 0x02	; 2
 16e:	0e 94 7c 00 	call	0xf8	; 0xf8 <LCDSendCmd>
 172:	80 e3       	ldi	r24, 0x30	; 48
 174:	0e 94 7c 00 	call	0xf8	; 0xf8 <LCDSendCmd>
 178:	82 e5       	ldi	r24, 0x52	; 82
 17a:	0e 94 7c 00 	call	0xf8	; 0xf8 <LCDSendCmd>
 17e:	86 e0       	ldi	r24, 0x06	; 6
 180:	0e 94 7c 00 	call	0xf8	; 0xf8 <LCDSendCmd>
 184:	08 95       	ret

00000186 <LCDdisplayTemp>:
	}
}

void LCDdisplayTemp(int temp){
 186:	0f 93       	push	r16
 188:	1f 93       	push	r17
 18a:	cf 93       	push	r28
 18c:	df 93       	push	r29
 18e:	00 d0       	rcall	.+0      	; 0x190 <LCDdisplayTemp+0xa>
 190:	00 d0       	rcall	.+0      	; 0x192 <LCDdisplayTemp+0xc>
 192:	00 d0       	rcall	.+0      	; 0x194 <LCDdisplayTemp+0xe>
 194:	cd b7       	in	r28, 0x3d	; 61
 196:	de b7       	in	r29, 0x3e	; 62
			
	//@todo implement individual digit check if changed check
	
	if(!(temp < 100 || temp > 500)){
 198:	9c 01       	movw	r18, r24
 19a:	24 56       	subi	r18, 0x64	; 100
 19c:	31 09       	sbc	r19, r1
 19e:	21 39       	cpi	r18, 0x91	; 145
 1a0:	31 40       	sbci	r19, 0x01	; 1
 1a2:	48 f5       	brcc	.+82     	; 0x1f6 <LCDdisplayTemp+0x70>
 1a4:	fe 01       	movw	r30, r28
 1a6:	39 96       	adiw	r30, 0x09	; 9
 1a8:	8e 01       	movw	r16, r28
 1aa:	0f 5f       	subi	r16, 0xFF	; 255
 1ac:	1f 4f       	sbci	r17, 0xFF	; 255
		
		int digits[3];
		
		for (int i = 3; i >= 0; i--) {
			digits[i] = temp % 10;
 1ae:	2a e0       	ldi	r18, 0x0A	; 10
 1b0:	30 e0       	ldi	r19, 0x00	; 0
 1b2:	b9 01       	movw	r22, r18
 1b4:	0e 94 c4 01 	call	0x388	; 0x388 <__divmodhi4>
 1b8:	92 93       	st	-Z, r25
 1ba:	82 93       	st	-Z, r24
			temp /= 10;
 1bc:	86 2f       	mov	r24, r22
 1be:	97 2f       	mov	r25, r23
	
	if(!(temp < 100 || temp > 500)){
		
		int digits[3];
		
		for (int i = 3; i >= 0; i--) {
 1c0:	0e 17       	cp	r16, r30
 1c2:	1f 07       	cpc	r17, r31
 1c4:	b1 f7       	brne	.-20     	; 0x1b2 <LCDdisplayTemp+0x2c>
			digits[i] = temp % 10;
			temp /= 10;
		}
		
		LCDWrite(2, numbers[digits[1]]);
 1c6:	eb 81       	ldd	r30, Y+3	; 0x03
 1c8:	fc 81       	ldd	r31, Y+4	; 0x04
 1ca:	ee 59       	subi	r30, 0x9E	; 158
 1cc:	ff 4f       	sbci	r31, 0xFF	; 255
 1ce:	60 81       	ld	r22, Z
 1d0:	82 e0       	ldi	r24, 0x02	; 2
 1d2:	0e 94 8a 00 	call	0x114	; 0x114 <LCDWrite>
		LCDWrite(4, numbers[digits[2]]);
 1d6:	ed 81       	ldd	r30, Y+5	; 0x05
 1d8:	fe 81       	ldd	r31, Y+6	; 0x06
 1da:	ee 59       	subi	r30, 0x9E	; 158
 1dc:	ff 4f       	sbci	r31, 0xFF	; 255
 1de:	60 81       	ld	r22, Z
 1e0:	84 e0       	ldi	r24, 0x04	; 4
 1e2:	0e 94 8a 00 	call	0x114	; 0x114 <LCDWrite>
		LCDWrite(6, numbers[digits[3]]);
 1e6:	ef 81       	ldd	r30, Y+7	; 0x07
 1e8:	f8 85       	ldd	r31, Y+8	; 0x08
 1ea:	ee 59       	subi	r30, 0x9E	; 158
 1ec:	ff 4f       	sbci	r31, 0xFF	; 255
 1ee:	60 81       	ld	r22, Z
 1f0:	86 e0       	ldi	r24, 0x06	; 6
 1f2:	0e 94 8a 00 	call	0x114	; 0x114 <LCDWrite>
	}
}
 1f6:	26 96       	adiw	r28, 0x06	; 6
 1f8:	0f b6       	in	r0, 0x3f	; 63
 1fa:	f8 94       	cli
 1fc:	de bf       	out	0x3e, r29	; 62
 1fe:	0f be       	out	0x3f, r0	; 63
 200:	cd bf       	out	0x3d, r28	; 61
 202:	df 91       	pop	r29
 204:	cf 91       	pop	r28
 206:	1f 91       	pop	r17
 208:	0f 91       	pop	r16
 20a:	08 95       	ret

0000020c <LCDdisplayAir>:

void LCDdisplayAir(int speed){
 20c:	0f 93       	push	r16
 20e:	1f 93       	push	r17
 210:	cf 93       	push	r28
 212:	df 93       	push	r29
 214:	00 d0       	rcall	.+0      	; 0x216 <LCDdisplayAir+0xa>
 216:	00 d0       	rcall	.+0      	; 0x218 <LCDdisplayAir+0xc>
 218:	00 d0       	rcall	.+0      	; 0x21a <LCDdisplayAir+0xe>
 21a:	cd b7       	in	r28, 0x3d	; 61
 21c:	de b7       	in	r29, 0x3e	; 62
	
	//@todo implement individual digit check if changed check
	
	if(!(speed < 100 || speed > 500)){
 21e:	9c 01       	movw	r18, r24
 220:	24 56       	subi	r18, 0x64	; 100
 222:	31 09       	sbc	r19, r1
 224:	21 39       	cpi	r18, 0x91	; 145
 226:	31 40       	sbci	r19, 0x01	; 1
 228:	48 f5       	brcc	.+82     	; 0x27c <LCDdisplayAir+0x70>
 22a:	fe 01       	movw	r30, r28
 22c:	39 96       	adiw	r30, 0x09	; 9
 22e:	8e 01       	movw	r16, r28
 230:	0f 5f       	subi	r16, 0xFF	; 255
 232:	1f 4f       	sbci	r17, 0xFF	; 255
		
		int digits[3];
		
		for (int i = 3; i >= 0; i--) {
			digits[i] = speed % 10;
 234:	2a e0       	ldi	r18, 0x0A	; 10
 236:	30 e0       	ldi	r19, 0x00	; 0
 238:	b9 01       	movw	r22, r18
 23a:	0e 94 c4 01 	call	0x388	; 0x388 <__divmodhi4>
 23e:	92 93       	st	-Z, r25
 240:	82 93       	st	-Z, r24
			speed /= 10;
 242:	86 2f       	mov	r24, r22
 244:	97 2f       	mov	r25, r23
	
	if(!(speed < 100 || speed > 500)){
		
		int digits[3];
		
		for (int i = 3; i >= 0; i--) {
 246:	0e 17       	cp	r16, r30
 248:	1f 07       	cpc	r17, r31
 24a:	b1 f7       	brne	.-20     	; 0x238 <LCDdisplayAir+0x2c>
			digits[i] = speed % 10;
			speed /= 10;
		}
		
		LCDWrite(9, numbers[digits[1]]);
 24c:	eb 81       	ldd	r30, Y+3	; 0x03
 24e:	fc 81       	ldd	r31, Y+4	; 0x04
 250:	ee 59       	subi	r30, 0x9E	; 158
 252:	ff 4f       	sbci	r31, 0xFF	; 255
 254:	60 81       	ld	r22, Z
 256:	89 e0       	ldi	r24, 0x09	; 9
 258:	0e 94 8a 00 	call	0x114	; 0x114 <LCDWrite>
		LCDWrite(11, numbers[digits[2]]);
 25c:	ed 81       	ldd	r30, Y+5	; 0x05
 25e:	fe 81       	ldd	r31, Y+6	; 0x06
 260:	ee 59       	subi	r30, 0x9E	; 158
 262:	ff 4f       	sbci	r31, 0xFF	; 255
 264:	60 81       	ld	r22, Z
 266:	8b e0       	ldi	r24, 0x0B	; 11
 268:	0e 94 8a 00 	call	0x114	; 0x114 <LCDWrite>
		LCDWrite(13, numbers[digits[3]]);
 26c:	ef 81       	ldd	r30, Y+7	; 0x07
 26e:	f8 85       	ldd	r31, Y+8	; 0x08
 270:	ee 59       	subi	r30, 0x9E	; 158
 272:	ff 4f       	sbci	r31, 0xFF	; 255
 274:	60 81       	ld	r22, Z
 276:	8d e0       	ldi	r24, 0x0D	; 13
 278:	0e 94 8a 00 	call	0x114	; 0x114 <LCDWrite>
	}
}
 27c:	26 96       	adiw	r28, 0x06	; 6
 27e:	0f b6       	in	r0, 0x3f	; 63
 280:	f8 94       	cli
 282:	de bf       	out	0x3e, r29	; 62
 284:	0f be       	out	0x3f, r0	; 63
 286:	cd bf       	out	0x3d, r28	; 61
 288:	df 91       	pop	r29
 28a:	cf 91       	pop	r28
 28c:	1f 91       	pop	r17
 28e:	0f 91       	pop	r16
 290:	08 95       	ret

00000292 <LCDdrawSleepIndicators>:


void LCDdrawSleepIndicators(){
	
	LCDWrite(2, 0x04);
 292:	64 e0       	ldi	r22, 0x04	; 4
 294:	82 e0       	ldi	r24, 0x02	; 2
 296:	0e 94 8a 00 	call	0x114	; 0x114 <LCDWrite>
	LCDWrite(4, 0x04);
 29a:	64 e0       	ldi	r22, 0x04	; 4
 29c:	84 e0       	ldi	r24, 0x04	; 4
 29e:	0e 94 8a 00 	call	0x114	; 0x114 <LCDWrite>
	LCDWrite(6, 0x04);
 2a2:	64 e0       	ldi	r22, 0x04	; 4
 2a4:	86 e0       	ldi	r24, 0x06	; 6
 2a6:	0e 94 8a 00 	call	0x114	; 0x114 <LCDWrite>
	
	LCDWrite(9, 0x04);
 2aa:	64 e0       	ldi	r22, 0x04	; 4
 2ac:	89 e0       	ldi	r24, 0x09	; 9
 2ae:	0e 94 8a 00 	call	0x114	; 0x114 <LCDWrite>
	LCDWrite(11, 0x04);
 2b2:	64 e0       	ldi	r22, 0x04	; 4
 2b4:	8b e0       	ldi	r24, 0x0B	; 11
 2b6:	0e 94 8a 00 	call	0x114	; 0x114 <LCDWrite>
	LCDWrite(13, 0x04);
 2ba:	64 e0       	ldi	r22, 0x04	; 4
 2bc:	8d e0       	ldi	r24, 0x0D	; 13
 2be:	0e 94 8a 00 	call	0x114	; 0x114 <LCDWrite>
 2c2:	08 95       	ret

000002c4 <INIT>:
	return 0;
}


void INIT(){
	BuzzerInit();
 2c4:	0e 94 5e 00 	call	0xbc	; 0xbc <BuzzerInit>
	ButtonsInit();
 2c8:	0e 94 41 00 	call	0x82	; 0x82 <ButtonsInit>
	
	
	//LCD stuff
	LCDSetPins();
 2cc:	0e 94 b2 00 	call	0x164	; 0x164 <LCDSetPins>
	sbi(PORTB, LCD_CS);
 2d0:	c3 9a       	sbi	0x18, 3	; 24
	sbi(PORTB, LCD_WR);
 2d2:	c2 9a       	sbi	0x18, 2	; 24
	sbi(PORTB, LCD_DT);
 2d4:	c1 9a       	sbi	0x18, 1	; 24
 2d6:	83 ed       	ldi	r24, 0xD3	; 211
 2d8:	90 e3       	ldi	r25, 0x30	; 48
 2da:	01 97       	sbiw	r24, 0x01	; 1
 2dc:	f1 f7       	brne	.-4      	; 0x2da <INIT+0x16>
 2de:	00 c0       	rjmp	.+0      	; 0x2e0 <INIT+0x1c>
 2e0:	00 00       	nop
	
	delay(50);
	LCDInit();
 2e2:	0e 94 b6 00 	call	0x16c	; 0x16c <LCDInit>
	LCDAllSegementsOff(8);
 2e6:	88 e0       	ldi	r24, 0x08	; 8
 2e8:	0e 94 a1 00 	call	0x142	; 0x142 <LCDAllSegementsOff>
	LCDdrawSleepIndicators();
 2ec:	0e 94 49 01 	call	0x292	; 0x292 <LCDdrawSleepIndicators>
 2f0:	08 95       	ret

000002f2 <main>:
//test var
int temp=100;
	
int main()
{
	INIT();
 2f2:	0e 94 62 01 	call	0x2c4	; 0x2c4 <INIT>
	
	while (1)
	{
		if(IsButtonPressed(BTN_TMP_UP)){
 2f6:	85 e0       	ldi	r24, 0x05	; 5
 2f8:	0e 94 49 00 	call	0x92	; 0x92 <IsButtonPressed>
 2fc:	89 2b       	or	r24, r25
 2fe:	79 f0       	breq	.+30     	; 0x31e <main+0x2c>
			temp++;
 300:	80 91 60 00 	lds	r24, 0x0060	; 0x800060 <__DATA_REGION_ORIGIN__>
 304:	90 91 61 00 	lds	r25, 0x0061	; 0x800061 <__DATA_REGION_ORIGIN__+0x1>
 308:	01 96       	adiw	r24, 0x01	; 1
 30a:	90 93 61 00 	sts	0x0061, r25	; 0x800061 <__DATA_REGION_ORIGIN__+0x1>
 30e:	80 93 60 00 	sts	0x0060, r24	; 0x800060 <__DATA_REGION_ORIGIN__>
			LCDdisplayTemp(temp);
 312:	0e 94 c3 00 	call	0x186	; 0x186 <LCDdisplayTemp>
			BuzzerBeep(100);
 316:	84 e6       	ldi	r24, 0x64	; 100
 318:	90 e0       	ldi	r25, 0x00	; 0
 31a:	0e 94 60 00 	call	0xc0	; 0xc0 <BuzzerBeep>
		}
		if(IsButtonPressed(BTN_TMP_DOWN)){
 31e:	86 e0       	ldi	r24, 0x06	; 6
 320:	0e 94 49 00 	call	0x92	; 0x92 <IsButtonPressed>
 324:	89 2b       	or	r24, r25
 326:	79 f0       	breq	.+30     	; 0x346 <main+0x54>
			temp--;
 328:	80 91 60 00 	lds	r24, 0x0060	; 0x800060 <__DATA_REGION_ORIGIN__>
 32c:	90 91 61 00 	lds	r25, 0x0061	; 0x800061 <__DATA_REGION_ORIGIN__+0x1>
 330:	01 97       	sbiw	r24, 0x01	; 1
 332:	90 93 61 00 	sts	0x0061, r25	; 0x800061 <__DATA_REGION_ORIGIN__+0x1>
 336:	80 93 60 00 	sts	0x0060, r24	; 0x800060 <__DATA_REGION_ORIGIN__>
			LCDdisplayTemp(temp);
 33a:	0e 94 c3 00 	call	0x186	; 0x186 <LCDdisplayTemp>
			BuzzerBeep(100);
 33e:	84 e6       	ldi	r24, 0x64	; 100
 340:	90 e0       	ldi	r25, 0x00	; 0
 342:	0e 94 60 00 	call	0xc0	; 0xc0 <BuzzerBeep>
		}
		if(IsButtonPressed(BTN_AIR_UP)){
 346:	84 e0       	ldi	r24, 0x04	; 4
 348:	0e 94 49 00 	call	0x92	; 0x92 <IsButtonPressed>
 34c:	89 2b       	or	r24, r25
 34e:	59 f0       	breq	.+22     	; 0x366 <main+0x74>
			temp++;
 350:	80 91 60 00 	lds	r24, 0x0060	; 0x800060 <__DATA_REGION_ORIGIN__>
 354:	90 91 61 00 	lds	r25, 0x0061	; 0x800061 <__DATA_REGION_ORIGIN__+0x1>
 358:	01 96       	adiw	r24, 0x01	; 1
 35a:	90 93 61 00 	sts	0x0061, r25	; 0x800061 <__DATA_REGION_ORIGIN__+0x1>
 35e:	80 93 60 00 	sts	0x0060, r24	; 0x800060 <__DATA_REGION_ORIGIN__>
			LCDdisplayAir(temp);
 362:	0e 94 06 01 	call	0x20c	; 0x20c <LCDdisplayAir>
		}
		if(IsButtonPressed(BTN_AIR_DOWN)){
 366:	83 e0       	ldi	r24, 0x03	; 3
 368:	0e 94 49 00 	call	0x92	; 0x92 <IsButtonPressed>
 36c:	89 2b       	or	r24, r25
 36e:	19 f2       	breq	.-122    	; 0x2f6 <main+0x4>
			temp--;
 370:	80 91 60 00 	lds	r24, 0x0060	; 0x800060 <__DATA_REGION_ORIGIN__>
 374:	90 91 61 00 	lds	r25, 0x0061	; 0x800061 <__DATA_REGION_ORIGIN__+0x1>
 378:	01 97       	sbiw	r24, 0x01	; 1
 37a:	90 93 61 00 	sts	0x0061, r25	; 0x800061 <__DATA_REGION_ORIGIN__+0x1>
 37e:	80 93 60 00 	sts	0x0060, r24	; 0x800060 <__DATA_REGION_ORIGIN__>
			LCDdisplayAir(temp);
 382:	0e 94 06 01 	call	0x20c	; 0x20c <LCDdisplayAir>
 386:	b7 cf       	rjmp	.-146    	; 0x2f6 <main+0x4>

00000388 <__divmodhi4>:
 388:	97 fb       	bst	r25, 7
 38a:	07 2e       	mov	r0, r23
 38c:	16 f4       	brtc	.+4      	; 0x392 <__divmodhi4+0xa>
 38e:	00 94       	com	r0
 390:	07 d0       	rcall	.+14     	; 0x3a0 <__divmodhi4_neg1>
 392:	77 fd       	sbrc	r23, 7
 394:	09 d0       	rcall	.+18     	; 0x3a8 <__divmodhi4_neg2>
 396:	0e 94 d8 01 	call	0x3b0	; 0x3b0 <__udivmodhi4>
 39a:	07 fc       	sbrc	r0, 7
 39c:	05 d0       	rcall	.+10     	; 0x3a8 <__divmodhi4_neg2>
 39e:	3e f4       	brtc	.+14     	; 0x3ae <__divmodhi4_exit>

000003a0 <__divmodhi4_neg1>:
 3a0:	90 95       	com	r25
 3a2:	81 95       	neg	r24
 3a4:	9f 4f       	sbci	r25, 0xFF	; 255
 3a6:	08 95       	ret

000003a8 <__divmodhi4_neg2>:
 3a8:	70 95       	com	r23
 3aa:	61 95       	neg	r22
 3ac:	7f 4f       	sbci	r23, 0xFF	; 255

000003ae <__divmodhi4_exit>:
 3ae:	08 95       	ret

000003b0 <__udivmodhi4>:
 3b0:	aa 1b       	sub	r26, r26
 3b2:	bb 1b       	sub	r27, r27
 3b4:	51 e1       	ldi	r21, 0x11	; 17
 3b6:	07 c0       	rjmp	.+14     	; 0x3c6 <__udivmodhi4_ep>

000003b8 <__udivmodhi4_loop>:
 3b8:	aa 1f       	adc	r26, r26
 3ba:	bb 1f       	adc	r27, r27
 3bc:	a6 17       	cp	r26, r22
 3be:	b7 07       	cpc	r27, r23
 3c0:	10 f0       	brcs	.+4      	; 0x3c6 <__udivmodhi4_ep>
 3c2:	a6 1b       	sub	r26, r22
 3c4:	b7 0b       	sbc	r27, r23

000003c6 <__udivmodhi4_ep>:
 3c6:	88 1f       	adc	r24, r24
 3c8:	99 1f       	adc	r25, r25
 3ca:	5a 95       	dec	r21
 3cc:	a9 f7       	brne	.-22     	; 0x3b8 <__udivmodhi4_loop>
 3ce:	80 95       	com	r24
 3d0:	90 95       	com	r25
 3d2:	bc 01       	movw	r22, r24
 3d4:	cd 01       	movw	r24, r26
 3d6:	08 95       	ret

000003d8 <_exit>:
 3d8:	f8 94       	cli

000003da <__stop_program>:
 3da:	ff cf       	rjmp	.-2      	; 0x3da <__stop_program>
